; ModuleID = '15/1693.c'
source_filename = "15/1693.c"
target datalayout = "e-m:e-p270:32:32-p271:32:32-p272:64:64-i64:64-f80:128-n8:16:32:64-S128"
target triple = "x86_64-pc-linux-gnu"

@.str = private unnamed_addr constant [3 x i8] c"%d\00", align 1

; Function Attrs: noinline nounwind uwtable
define dso_local i32 @main() #0 {
  %1 = alloca i32, align 4
  %2 = alloca i32, align 4
  %3 = alloca [100 x [100 x i32]], align 16
  %4 = alloca i32, align 4
  %5 = alloca i32, align 4
  %6 = alloca i32, align 4
  %7 = alloca i32, align 4
  %8 = alloca i32, align 4
  %9 = alloca i32, align 4
  %10 = alloca i32, align 4
  %11 = alloca i32, align 4
  %12 = alloca i32, align 4
  %13 = alloca i32, align 4
  %14 = alloca i32, align 4
  store i32 0, i32* %1, align 4
  %15 = call i32 (i8*, ...) @__isoc99_scanf(i8* getelementptr inbounds ([3 x i8], [3 x i8]* @.str, i64 0, i64 0), i32* %2)
  store i32 0, i32* %4, align 4
  br label %16

16:                                               ; preds = %37, %0
  %17 = load i32, i32* %4, align 4
  %18 = load i32, i32* %2, align 4
  %19 = icmp slt i32 %17, %18
  br i1 %19, label %20, label %40

20:                                               ; preds = %16
  store i32 0, i32* %5, align 4
  br label %21

21:                                               ; preds = %33, %20
  %22 = load i32, i32* %5, align 4
  %23 = load i32, i32* %2, align 4
  %24 = icmp slt i32 %22, %23
  br i1 %24, label %25, label %36

25:                                               ; preds = %21
  %26 = load i32, i32* %4, align 4
  %27 = sext i32 %26 to i64
  %28 = getelementptr inbounds [100 x [100 x i32]], [100 x [100 x i32]]* %3, i64 0, i64 %27
  %29 = load i32, i32* %5, align 4
  %30 = sext i32 %29 to i64
  %31 = getelementptr inbounds [100 x i32], [100 x i32]* %28, i64 0, i64 %30
  %32 = call i32 (i8*, ...) @__isoc99_scanf(i8* getelementptr inbounds ([3 x i8], [3 x i8]* @.str, i64 0, i64 0), i32* %31)
  br label %33

33:                                               ; preds = %25
  %34 = load i32, i32* %5, align 4
  %35 = add nsw i32 %34, 1
  store i32 %35, i32* %5, align 4
  br label %21

36:                                               ; preds = %21
  br label %37

37:                                               ; preds = %36
  %38 = load i32, i32* %4, align 4
  %39 = add nsw i32 %38, 1
  store i32 %39, i32* %4, align 4
  br label %16

40:                                               ; preds = %16
  store i32 100, i32* %6, align 4
  store i32 100, i32* %7, align 4
  store i32 0, i32* %8, align 4
  store i32 0, i32* %9, align 4
  store i32 0, i32* %10, align 4
  br label %41

41:                                               ; preds = %74, %40
  %42 = load i32, i32* %10, align 4
  %43 = load i32, i32* %2, align 4
  %44 = icmp slt i32 %42, %43
  br i1 %44, label %45, label %77

45:                                               ; preds = %41
  store i32 0, i32* %11, align 4
  br label %46

46:                                               ; preds = %63, %45
  %47 = load i32, i32* %11, align 4
  %48 = load i32, i32* %2, align 4
  %49 = icmp slt i32 %47, %48
  br i1 %49, label %50, label %66

50:                                               ; preds = %46
  %51 = load i32, i32* %10, align 4
  %52 = sext i32 %51 to i64
  %53 = getelementptr inbounds [100 x [100 x i32]], [100 x [100 x i32]]* %3, i64 0, i64 %52
  %54 = load i32, i32* %11, align 4
  %55 = sext i32 %54 to i64
  %56 = getelementptr inbounds [100 x i32], [100 x i32]* %53, i64 0, i64 %55
  %57 = load i32, i32* %56, align 4
  %58 = icmp eq i32 %57, 0
  br i1 %58, label %59, label %62

59:                                               ; preds = %50
  %60 = load i32, i32* %10, align 4
  store i32 %60, i32* %6, align 4
  %61 = load i32, i32* %11, align 4
  store i32 %61, i32* %7, align 4
  br label %66

62:                                               ; preds = %50
  br label %63

63:                                               ; preds = %62
  %64 = load i32, i32* %11, align 4
  %65 = add nsw i32 %64, 1
  store i32 %65, i32* %11, align 4
  br label %46

66:                                               ; preds = %59, %46
  %67 = load i32, i32* %6, align 4
  %68 = icmp ne i32 %67, 100
  br i1 %68, label %72, label %69

69:                                               ; preds = %66
  %70 = load i32, i32* %7, align 4
  %71 = icmp ne i32 %70, 100
  br i1 %71, label %72, label %73

72:                                               ; preds = %69, %66
  br label %77

73:                                               ; preds = %69
  br label %74

74:                                               ; preds = %73
  %75 = load i32, i32* %10, align 4
  %76 = add nsw i32 %75, 1
  store i32 %76, i32* %10, align 4
  br label %41

77:                                               ; preds = %72, %41
  %78 = load i32, i32* %2, align 4
  %79 = sub nsw i32 %78, 1
  store i32 %79, i32* %12, align 4
  br label %80

80:                                               ; preds = %113, %77
  %81 = load i32, i32* %12, align 4
  %82 = icmp sge i32 %81, 0
  br i1 %82, label %83, label %116

83:                                               ; preds = %80
  %84 = load i32, i32* %2, align 4
  %85 = sub nsw i32 %84, 1
  store i32 %85, i32* %13, align 4
  br label %86

86:                                               ; preds = %102, %83
  %87 = load i32, i32* %13, align 4
  %88 = icmp sge i32 %87, 0
  br i1 %88, label %89, label %105

89:                                               ; preds = %86
  %90 = load i32, i32* %12, align 4
  %91 = sext i32 %90 to i64
  %92 = getelementptr inbounds [100 x [100 x i32]], [100 x [100 x i32]]* %3, i64 0, i64 %91
  %93 = load i32, i32* %13, align 4
  %94 = sext i32 %93 to i64
  %95 = getelementptr inbounds [100 x i32], [100 x i32]* %92, i64 0, i64 %94
  %96 = load i32, i32* %95, align 4
  %97 = icmp eq i32 %96, 0
  br i1 %97, label %98, label %101

98:                                               ; preds = %89
  %99 = load i32, i32* %12, align 4
  store i32 %99, i32* %8, align 4
  %100 = load i32, i32* %13, align 4
  store i32 %100, i32* %9, align 4
  br label %105

101:                                              ; preds = %89
  br label %102

102:                                              ; preds = %101
  %103 = load i32, i32* %13, align 4
  %104 = add nsw i32 %103, -1
  store i32 %104, i32* %13, align 4
  br label %86

105:                                              ; preds = %98, %86
  %106 = load i32, i32* %8, align 4
  %107 = icmp ne i32 %106, 0
  br i1 %107, label %111, label %108

108:                                              ; preds = %105
  %109 = load i32, i32* %9, align 4
  %110 = icmp ne i32 %109, 0
  br i1 %110, label %111, label %112

111:                                              ; preds = %108, %105
  br label %116

112:                                              ; preds = %108
  br label %113

113:                                              ; preds = %112
  %114 = load i32, i32* %12, align 4
  %115 = add nsw i32 %114, -1
  store i32 %115, i32* %12, align 4
  br label %80

116:                                              ; preds = %111, %80
  %117 = load i32, i32* %8, align 4
  %118 = load i32, i32* %6, align 4
  %119 = sub nsw i32 %117, %118
  %120 = sub nsw i32 %119, 1
  %121 = load i32, i32* %9, align 4
  %122 = load i32, i32* %7, align 4
  %123 = sub nsw i32 %121, %122
  %124 = sub nsw i32 %123, 1
  %125 = mul nsw i32 %120, %124
  store i32 %125, i32* %14, align 4
  %126 = load i32, i32* %14, align 4
  %127 = call i32 (i8*, ...) @printf(i8* getelementptr inbounds ([3 x i8], [3 x i8]* @.str, i64 0, i64 0), i32 %126)
  ret i32 0
}

declare dso_local i32 @__isoc99_scanf(i8*, ...) #1

declare dso_local i32 @printf(i8*, ...) #1


!llvm.module.flags = !{!0}
!llvm.ident = !{!1}

!0 = !{i32 1, !"wchar_size", i32 4}
!1 = !{!"clang version 10.0.0-4ubuntu1 "}
